; Function Attrs: nounwind sspstrong uwtable
define dso_local i32 @gdb_target_memory_rw_debug(ptr noundef %0, i64 noundef %1, ptr noundef %2, i32 noundef %3, i1 noundef zeroext %4) local_unnamed_addr #0 {
  %6 = tail call ptr @object_get_class(ptr noundef %0) #16
  %7 = tail call ptr @object_class_dynamic_cast_assert(ptr noundef %6, ptr noundef nonnull @.str.41, ptr noundef nonnull @.str.42, i32 noundef 67, ptr noundef nonnull @__func__.CPU_GET_CLASS) #16
  %8 = getelementptr inbounds nuw i8, ptr %7, i64 216
  %9 = load ptr, ptr %8, align 8
  %.not = icmp eq ptr %9, null
  br i1 %.not, label %12, label %10

10:                                               ; preds = %5
  %11 = tail call i32 %9(ptr noundef %0, i64 noundef %1, ptr noundef %2, i32 noundef %3, i1 noundef zeroext %4) #16
  br label %15

12:                                               ; preds = %5
  %13 = sext i32 %3 to i64
  %14 = tail call i32 @cpu_memory_rw_debug(ptr noundef %0, i64 noundef %1, ptr noundef %2, i64 noundef %13, i1 noundef zeroext %4) #16
  br label %15

15:                                               ; preds = %12, %10
  %.0 = phi i32 [ %11, %10 ], [ %14, %12 ]
  ret i32 %.0
}